(dp1
S'output'
p2
S"<type 'exceptions.AttributeError'> "
p3
sS'layer'
p4
S'/Users/jade/Downloads/web2py/applications/KPax2/views/chats/index.html'
p5
sS'code'
p6
S'response.write(\'<!DOCTYPE html PUBLIC "-//W3C//DTD XHTML 1.0 Strict//EN" "http://www.w3.org/TR/xhtml1/DTD/xhtml1-strict.dtd">\\n<html xmlns="http://www.w3.org/1999/xhtml" xml:lang="en" lang="en">\\n<head>\\n<meta http-equiv="content-type" content="text/html; charset=utf-8" />\\n<meta name="keywords" content="\', escape=False)\nresponse.write(response.keywords)\nresponse.write(\'" />\\n<meta name="description" content="\', escape=False)\nresponse.write(response.description)\nresponse.write(\'" />\\n<title>\', escape=False)\nif response.title:\n    response.write(response.title)\nelse:\n    response.write(URL(r=request))\n    pass\nresponse.write("</title>\\n<style>\\ndiv.fluid { width: 93% !important; }\\ndiv.fixed { width: 93% !important; }\\n* { margin: 0em; padding: 0em; }\\n body { background-color: #fff; color: #585858; font-size: 11pt; font-family: helvetica; }\\n h1,h2,h3,h4,h5,h6 { font-weight: normal; letter-spacing: -1px; page-break-before: always;}\\n h2,h3,h4,h5,h6 { color: #4CBC15; }\\n br.clear { clear: both; }\\n img { padding: 3px; border: 0px }\\n img.icon { border: 0px; vertical-align: middle; }\\n img.floatTL { float: left; margin-right: 1.5em; margin-bottom: 1.5em; margin-top: 0.5em; }\\n a { text-decoration: none; color: #D21287; }\\n a:hover { text-decoration: underline; }\\n textarea { font-family: courier; }\\n ul { margin-bottom: 0.5em; }\\n li { margin-left: 2em; line-height: 1.5em; }\\n ul.myQuestions { list-style: none; }\\n li.myQuestion { background: #DDDDDD;width: 200px; margin: 5px; padding: 5px;}\\n li.myQuestionOn { background: #FFFFBB;width: 200px; margin: 5px; padding: 5px;}\\n ul.myPages { list-style: none; }\\n li.myPage { background: #DDDDDD;width: 200px; margin: 5px; padding: 5px;}\\n dt { text-decoration:none; margin-left: +10em; }\\n p { line-height: 1.8em; margin-bottom: 0.2em; }\\n .verbatim { font-family: Bitstream Vera Sans Mono,monospace; }\\n .box { border: 1px solid; padding: 3px; background-color: #eeeeee;}\\n pre { padding: 1em}\\n code { font-size: 12px; font-family: Bitstream Vera Sans Mono,monospace; }\\n table { border-spacing: 2px; }\\n tr, td, th { padding: 2px; text-align: left; vertical-align: top; } \\n #header { width:100%; height:36px; background: #195866 url(\'/", escape=False)\nresponse.write(request.application)\nresponse.write("/static/title.png\') repeat-x; }\\n #header_inner { position: relative; width: 800px; height:36px; margin: 0 auto; }\\n #header_lite { width:100%; height:36px; background: #440000 url(\'/", escape=False)\nresponse.write(request.application)\nresponse.write("/static/title.png\') repeat-x; }\\n #header_inner_lite { position: relative; width: 800px; height: 36px; margin: 0 auto; }\\n /* Logo */\\n #logo { position: absolute; bottom: 0.3em; }\\n #logo h1 { display: inline; color: #fff; font-size: 1.8em; }\\n #logo h2 { display: inline; color: #fff; font-size: 1.8em; }\\n /* Menu */\\n #menu { position: absolute; right: 0em; bottom: 0em; }\\n #menu ul { list-style: none; color: #D21287; }\\n #menu li { margin-left: 0.5em; float: left; color: #D21287;}\\n #menu li a { margin-left: 0.5em; display: block; padding: 0.5em 0.5em 0.5em 0.5em; background: #fff repeat-x; color: #185360; font-weight: bold; font-size: 1.0em; text-decoration: none;}\\n #menu li a.inactive { background: transparent; color: #D21287; border: solid 0px #185360; border-top: solid 0px #185360; }\\n /* Main */\\n #main { background: #fff 0px 1px repeat-x; }\\n #main_inner p { text-align: justify; margin-bottom: 2.0em; }\\n #main_inner ul { margin-bottom: 2.0em; }\\n #main_inner { position: relative; width: 800px; margin: 0 auto; padding-top: 1.0em; }\\n #main_inner h1 { border-bottom: dotted 1px #E1E1E1; position: relative; font-size: 2.1em; padding-bottom: 0.1em; margin-bottom: 0.8em; }\\n #main_inner .post { position: relative; }\\n #main_inner .post h3 { position: relative; font-size: 1.7em; padding-bottom: 1.2em; }\\n #main_inner .post ul.post_info { list-style: none; position: absolute; top: 3em; font-size: 0.8em; }\\n #main_inner .post ul.post_info li { background-position: 0em 0.2em; background-repeat: no-repeat; display: inline; padding-left: 18px; }\\n /* Flash */\\n .comment { border: 1px solid; background-color: #dddddd; padding: 3px; }\\n #flash { margin: 0 auto; text-align: center; clear: both; border: 1px #000000; background-color: #D21287; color: white; margin-top: 0.0em; margin-bottom: 1.0em; padding-top: 1.0em; padding-bottom: 1.0em; }\\ndiv.error { background-color: #D21287; color: white; padding: 3px; width: 300px;}\\n /* Footer */\\n #footer { width: 800px; margin: 0 auto; text-align: center; clear: both; border-top: dotted 1px #E1E1E1; margin-top: 1.0em; margin-bottom: 1.5em; padding-top: 1.0em; }\\n /* Search */\\n input.button { background: #BC4C15 repeat-x; color: #fff; border: solid 1px #DB7623; font-weight: bold; font-size: 0.8em; height: 2.0em; }\\n input.text { border: solid 1px #F1F1F1; font-size: 1.0em; padding: 0.25em 0.25em 0.25em 0.25em; }\\n /* LAYOUT - 3 COLUMNS */\\n /* Primary content */\\n #primaryContent_3columns { position: relative; margin-right: 34em; }\\n #columnA_3columns { position: relative; float: left; width: 100%; margin-right: -34em; padding-right: 2em; }\\n /* Secondary Content */\\n #secondaryContent_3columns { float: right; }\\n #columnB_3columns { width: 13.0em; float: left; padding: 0em 2em 0.5em 2em; border-left: dotted 1px #E1E1E1; }\\n #columnC_3columns { width: 13.0em; float: left; padding: 0em 0em 0.5em 2em; border-left: dotted 1px #E1E1E1; }\\n /* LAYOUT - 2 COLUMNS */\\n /* Primary content */\\n #primaryContent_2columns { position: relative; margin-right: 17em; }\\n #columnA_2columns { position: relative; float: left; width: 100%; margin-right: -17em; padding-right: 2em; }\\n /* Secondary Content */\\n #secondaryContent_2columns { float: right; }\\n #columnC_2columns { width: 13.0em; float: left; padding: 0em 0em 0.5em 2em; border-left: dotted 1px #E1E1E1; }\\n /* LAYOUT - COLUMNLESS */\\n /* Primary content */\\n #primaryContent_columnless { position: relative; }\\n #columnA_columnless { position: relative; width: 100%; }\\n /* FOR DOCTESTS RESULTS */\\nh3.failed { color: #D21287; }\\nh3.passed { color: green; }\\nh3.nodoctests { color: #888888; }\\ntable.sortable thead { background-color:#ccc; color:#D21287; font-weight: bold; cursor: default;}\\ntable.sortable tbody tr.odd td { background-color: #eee;}\\ntable.sortable tbody tr.even td { background-color: #ddd; }\\ntable.sortable tbody tr.highlight td { background-color: #FFFF99; }\\ntd.gsearch {background-color:#FFFFBB; padding: 5px}\\n</style>\\n", escape=False)\nresponse.write(\'<script type="text/javascript" src="/\', escape=False)\nresponse.write(request.application)\nresponse.write(\'/static/jquery.js"></script>\\n\', escape=False)\nimport os\nresponse.write(\'\\n\', escape=False)\nif os.access(os.path.join(request.folder,\'static\',\'ui.datepicker.js\'),os.R_OK):\n    response.write(\'\\n<link rel="stylesheet" href="/\', escape=False)\n    response.write(request.application)\n    response.write(\'/static/ui.datepicker.css" type="text/css" media="screen" title="core css file" charset="utf-8" />\\n<script src="/\', escape=False)\n    response.write(request.application)\n    response.write(\'/static/ui.datepicker.js" type="text/javascript" charset="utf-8"></script>\\n\', escape=False)\n    pass\nresponse.write(\'\\n<script type="text/javascript"><!--\\n/* Written by Massimo Di Pierro. Here for backward compatibility. */\\nfunction popup(url) {\\n  newwindow=window.open(url,\\\'name\\\',\\\'height=400,width=600\\\');\\n  if (window.focus) newwindow.focus();\\n  return false;\\n}\\nfunction collapse(id) { $(\\\'#\\\'+id).slideToggle(); }\\nfunction fade(id,value) { if(value>0) $(\\\'#\\\'+id).hide().fadeIn(\\\'slow\\\'); else $(\\\'#\\\'+id).show().fadeOut(\\\'slow\\\'); }\\nfunction ajax(u,s,t) {\\n  var query="";\\n  for(i=0; i<s.length; i++) { if(i>0) query=query+"&";\\n     query=query+encodeURIComponent(s[i])+"="+encodeURIComponent(document.getElementById(s[i]).value);\\n  }\\n  $.ajax({type: "POST", url: u, data: query, success: function(msg) { if(t!=false) document.getElementById(t).innerHTML=msg; } });\\n} \\nString.prototype.reverse = function () {return this.split(\\\'\\\').reverse().join(\\\'\\\');};\\n$(document).ready(function() {\\n$(\\\'div.error\\\').hide().slideDown(\\\'slow\\\');\\n$(\\\'#flash\\\').hide().slideDown(\\\'slow\\\').attr(\\\'onclick\\\',\\\'$(this).fadeOut();\\\');\\n$(\\\'input.integer\\\').attr(\\\'onkeyup\\\',"this.value=this.value.reverse().replace(/[^0-9\\\\-]|\\\\-(?=.)/g,\\\'\\\').reverse();");\\n$(\\\'input.double\\\').attr(\\\'onkeyup\\\',"this.value=this.value.reverse().replace(/[^0-9\\\\-\\\\.]|[\\\\-](?=.)|[\\\\.](?=[0-9]*[\\\\.])/g,\\\'\\\').reverse();");\\ntry {$("input.date").datepicker({dateFormat: \\\'\', escape=False)\nresponse.write(T(\'yy-mm-dd\'))\nresponse.write("\'});} catch(e) {};\\n});\\n//--></script>", escape=False)\nresponse.write(\'\\n<script><!--\\n$(document).ready(function(){\\n$(\\\'body\\\').hide().fadeIn(\\\'fast\\\');\\n$(\\\'textarea\\\').attr(\\\'cols\\\',\\\'100\\\');\\n$(\\\'input.string\\\').attr(\\\'size\\\',\\\'60\\\');\\n$(\\\'.delete\\\').attr(\\\'onclick\\\',\\\'if(this.checked) if(!confirm("Sure you want to delete this object?")) this.checked=false;\\\');\\n});\\n//--></script>\\n</head>\\n<body>\\n<div id="header">\\n <div id="header_inner" class="fixed">\\n   <div id="logo">\\n     \\n   </div>\\n   \', escape=False)\nif response.menu:\n    response.write(\'\\n   <div id="menu">\\n   <ul>\\n    \', escape=False)\n    for _name,_active,_link in response.menu:\n        response.write(\'\\n    <li><a href="\', escape=False)\n        response.write(_link)\n        response.write(\'" onmouseover="this.ccc=this.style.backgroundColor;this.style.backgroundColor=\\\'white\\\';" onMouseOut="this.style.backgroundColor=this.ccc;" \', escape=False)\n        if not _active:\n            response.write(\'class="inactive"\', escape=False)\n            pass\n        response.write(\'>\', escape=False)\n        response.write(_name)\n        response.write(\'</a></li>\\n    \', escape=False)\n        pass\n    response.write(\'\\n   </ul>\\n   </div>\\n   \', escape=False)\n    pass\nresponse.write(\'\\n  </div>\\n</div>\\n\\n<div id="main">\\n  <div id="main_inner" class="fixed">\\n    <div id="primaryContent_columnless">\\n      <div id="columnA_columnless">  \\n \\n        \', escape=False)\nif session.token:\n    response.write(T("Hi"))\n    response.write(\' \', escape=False)\n    response.write(session.person_name)\n    response.write(\' [<a href="\', escape=False)\n    response.write(URL(r=request,c=\'cas\',f=\'edit_profile\'))\n    response.write(\'">profile</a>][<a href="\', escape=False)\n    response.write(URL(r=request,c=\'default\',f=\'logout\'))\n    response.write(\'">logout</a>]\', escape=False)\n    pass\nresponse.write(\'<br/><br/>\\n        \', escape=False)\nif response.flash:\n    response.write(\'\\n        <div id="flash">\', escape=False)\n    response.write(response.flash)\n    response.write(\'</div>\\n        \', escape=False)\n    pass\nresponse.write(\'\\n        \', escape=False)\nresponse.write(\'\\n\\n<h1>Chat Lines</h1>\\n\\n<img src="\', escape=False)\nresponse.write(URL(r=request,c=\'static\',f=\'chat/chat.png\'))\nresponse.write(\'" align="right"/>\\n\\n<table><tr><td class="gsearch">\', escape=False)\nresponse.write(\'<script><!--\\nfunction si() {\\n  var items=new Array();\\n  var itemss=new Array();\\n  $(\\\'.mygroup\\\').each(function(){if(this.checked) items=items.concat(this.name)});\\n  try {\\n    itemss=itemss.concat($(\\\'#search\\\').attr(\\\'value\\\').toLowerCase().replace(\\\' \\\',\\\'\\\\w+\\\').split(\\\',\\\'));\\n  } catch(e) {}\\n  $(\\\'.myitems\\\').each(function(){\\n    var show=false, html=this.innerHTML.toLowerCase();\\n    for(i=0; i<items.length; i++) if(html.search(items[i])!=-1) show=true;\\n    for(i=0; i<itemss.length; i++) if(html.search(itemss[i])<0) show=false;\\n    if(show) $(this).fadeIn(); else $(this).fadeOut();\\n  });\\n}\\n$(document).ready(function(){si()});\\n//--></script>\\n<form action="javascript:void(0);">\\n<h3>Filter by Group</h3>\\n\', escape=False)\nfor group in groups:\n    response.write(\'\\n<input type="checkbox" checked name="\\\\[g\', escape=False)\n    response.write(group.id)\n    response.write(\'\\\\]" class="mygroup" onclick="si()"/> [G\', escape=False)\n    response.write(group.id)\n    response.write(\'] \', escape=False)\n    response.write(group.name)\n    response.write(\'<br/>\\n\', escape=False)\n    pass\nresponse.write(\'<br/>\\n<h3>Filter by Keyword</h3>\\n<input id="search" name="search" length="8" value="" onchange="si()" onkeyup="si()"/><br/>\\n</form>\\n\', escape=False)\nresponse.write(\'\\n\\n</td><td>\\n\\n<h2>You have access to these chat lines</h2>\\n[<a href="\', escape=False)\nresponse.write(URL(\'create_chat\'))\nresponse.write(\'">create chat</a>]<br/>\\n\', escape=False)\nif len(chats):\n    response.write(\'\\n<table>\\n\', escape=False)\n    for k,a in enumerate(chats):\n        response.write(\'\\n<tr class="myitems" id="\', escape=False)\n        response.write(a.chat_line.name)\n        response.write(\'"><td>[A\', escape=False)\n        response.write(a.chat_line.id)\n        response.write(\']</td><td><a onclick="$(\\\'#box\', escape=False)\n        response.write(a.chat_line.id)\n        response.write(\'\\\').slideToggle();">\', escape=False)\n        response.write(a.chat_line.name)\n        response.write(\'</a> created by <a href="mailto:\', escape=False)\n        response.write(a.auth_user.email)\n        response.write(\'">\', escape=False)\n        response.write(a.auth_user.name)\n        response.write(\'</a>\\n<div id="box\', escape=False)\n        response.write(a.chat_line.id)\n        response.write(\'" class="box">\\n<span style="visibility:hidden">\', escape=False)\n        response.write(\'\'.join([\'[G%s]\'%i for i in a.accessible_to]))\n        response.write(\'</span>\\n\', escape=False)\n        response.write(XML(a.chat_line.description))\n        response.write(\'\\n<br/>\\n[<a href="\', escape=False)\n        response.write(URL(\'open_chat\',args=str(a.chat_line.id)))\n        response.write(\'">go chat</a>]\\n\', escape=False)\n        if a.chat_line.owner==auth.user_id:\n            response.write(\'\\n[<a href="\', escape=False)\n            response.write(URL(r=request,c=\'access\',f=\'change\',args=[\'chat_line\',a.chat_line.id],vars=dict(forward=URL(r=request))))\n            response.write(\'">change permissions</a>]\\n[<a href="\', escape=False)\n            response.write(URL(\'edit_chat\',args=[a.chat_line.id]))\n            response.write(\'">edit info</a>]\\n[<a href="\', escape=False)\n            response.write(URL(\'clear\',args=[a.chat_line.id]))\n            response.write(\'">reset</a>]\\n\', escape=False)\n            pass\n        response.write(\'\\n</div>\\n\', escape=False)\n        if k>0:\n            response.write("\\n<script><!--\\n$(\'#box", escape=False)\n            response.write(a.chat_line.id)\n            response.write("\').hide();\\n//--></script>\\n", escape=False)\n            pass\n        response.write(\'\\n</td></tr>\\n\', escape=False)\n        pass\n    response.write(\'\\n</table>\\n\', escape=False)\n    pass\nresponse.write(\'\\n</td></tr></table>\\n\', escape=False)\nresponse.write(\'\\n      </div>\\n    </div>\\n  </div>\\n</div>\\n<div id="footer" class="fixed">\\nKPAX is powered by <a href="http://www.web2py.com">web2py</a> (TM) &copy; 2007, 2008\\n</div>\\n\', escape=False)\nif auth.user:\n    response.write(\'\\n<link rel="stylesheet" type="text/css" href="/\', escape=False)\n    response.write(request.application)\n    response.write(\'/static/fisheye-menu.css" />\\n<script type="text/javascript" src="/\', escape=False)\n    response.write(request.application)\n    response.write(\'/static/fisheye.js"></script>\\n<div style="position: absolute; left: 0px; top: 0px;">\\n<ul id="fisheye_menu">\\n  <li id="fisheye_menu"><a href="http://www.depaul.edu"><img src="/\', escape=False)\n    response.write(request.application)\n    response.write(\'/static/main_images/main_depaul_small.png"/><span>DePaul University</span></a></li>\\n  <li id="fisheye_menu"><a href="/\', escape=False)\n    response.write(request.application)\n    response.write(\'/news"><img src="/\', escape=False)\n    response.write(request.application)\n    response.write(\'/static/main_images/main_news_small.png"/><span>Post and Read News Announcements</span></a></li>\\n  <li id="fisheye_menu"><a href="/\', escape=False)\n    response.write(request.application)\n    response.write(\'/folders"><img src="/\', escape=False)\n    response.write(request.application)\n    response.write(\'/static/main_images/main_folders_small.png"  /><span>Create and Manage Folders, Documents, Wikis, Blogs</span></a></li>\\n  <li id="fisheye_menu"><a href="/\', escape=False)\n    response.write(request.application)\n    response.write(\'/surveys"><img src="/\', escape=False)\n    response.write(request.application)\n    response.write(\'/static/main_images/main_surveys_small.png"  /><span>Create and Manage Surveys, Assignments</span></a></li>\\n  <!-- <li id="fisheye_menu"><a href="/\', escape=False)\n    response.write(request.application)\n    response.write(\'/tasks"><img src="/\', escape=False)\n    response.write(request.application)\n    response.write(\'/static/main_images/main_tasks_small.png"  /><span>Assign Tasks and Grades</span></a></li> //-->\\n  <li id="fisheye_menu"><a href="/\', escape=False)\n    response.write(request.application)\n    response.write(\'/chats"><img src="/\', escape=False)\n    response.write(request.application)\n    response.write(\'/static/main_images/main_chats_small.png"  /><span>Create and Join Chat Lines</span></a></li>\\n  <li id="fisheye_menu"><a href="/\', escape=False)\n    response.write(request.application)\n    response.write(\'/groups"><img src="/\', escape=False)\n    response.write(request.application)\n    response.write(\'/static/main_images/main_groups_small.png"  /><span>Create and Manage Groups</span></a></li>\\n  </ul>\\n  </div>\\n\', escape=False)\n    pass\nresponse.write(\'\\n\', escape=False)\nresponse.write(auth.navbar())\nresponse.write(\'\\n\', escape=False)\nresponse.write(\'\\n</body>\\n</html>\', escape=False)'
p7
sS'snapshot'
p8
(dp9
S'exception'
p10
(dp11
S'__getslice__'
p12
S"<method-wrapper '__getslice__' of exceptions.AttributeError object>"
p13
sS'__str__'
p14
S"<method-wrapper '__str__' of exceptions.AttributeError object>"
p15
sS'__reduce__'
p16
S'<built-in method __reduce__ of exceptions.AttributeError object>'
p17
sS'__dict__'
p18
S'{}'
p19
sS'message'
p20
S"''"
p21
sS'__sizeof__'
p22
S'<built-in method __sizeof__ of exceptions.AttributeError object>'
p23
sS'__init__'
p24
S"<method-wrapper '__init__' of exceptions.AttributeError object>"
p25
sS'__setattr__'
p26
S"<method-wrapper '__setattr__' of exceptions.AttributeError object>"
p27
sS'__reduce_ex__'
p28
S'<built-in method __reduce_ex__ of exceptions.AttributeError object>'
p29
sS'__new__'
p30
S'<built-in method __new__ of type object>'
p31
sS'__format__'
p32
S'<built-in method __format__ of exceptions.AttributeError object>'
p33
sS'__class__'
p34
S"<type 'exceptions.AttributeError'>"
p35
sS'__doc__'
p36
S"'Attribute not found.'"
p37
sS'__getitem__'
p38
S"<method-wrapper '__getitem__' of exceptions.AttributeError object>"
p39
sS'__setstate__'
p40
S'<built-in method __setstate__ of exceptions.AttributeError object>'
p41
sS'__getattribute__'
p42
S"<method-wrapper '__getattribute__' of exceptions.AttributeError object>"
p43
sS'args'
p44
S'()'
p45
sS'__subclasshook__'
p46
S'<built-in method __subclasshook__ of type object>'
p47
sS'__unicode__'
p48
S'<built-in method __unicode__ of exceptions.AttributeError object>'
p49
sS'__delattr__'
p50
S"<method-wrapper '__delattr__' of exceptions.AttributeError object>"
p51
sS'__repr__'
p52
S"<method-wrapper '__repr__' of exceptions.AttributeError object>"
p53
sS'__hash__'
p54
S"<method-wrapper '__hash__' of exceptions.AttributeError object>"
p55
ssS'evalue'
p56
S''
sS'request'
p57
cgluon.html
XML_unpickle
p58
(S'se\xc3\x00\x00<div><table><tr><td style="font-weight:bold;vertical-align:top;">ajax</td><td style="vertical-align:top;">:</td><td><div>False</div></td></tr><tr><td style="font-weight:bold;vertical-align:top;">application</td><td style="vertical-align:top;">:</td><td><div>KPax2</div></td></tr><tr><td style="font-weight:bold;vertical-align:top;">args</td><td style="vertical-align:top;">:</td><td><div><table></table></div></td></tr><tr><td style="font-weight:bold;vertical-align:top;">cid</td><td style="vertical-align:top;">:</td><td><div>None</div></td></tr><tr><td style="font-weight:bold;vertical-align:top;">client</td><td style="vertical-align:top;">:</td><td><div>127.0.0.1</div></td></tr><tr><td style="font-weight:bold;vertical-align:top;">controller</td><td style="vertical-align:top;">:</td><td><div>chats</div></td></tr><tr><td style="font-weight:bold;vertical-align:top;">cookies</td><td style="vertical-align:top;">:</td><td><div><table><tr><td style="font-weight:bold;vertical-align:top;">session_data_examples</td><td style="vertical-align:top;">:</td><td><div>hmac256:55d6ab81b49a2bc05158984cc77db078b7048b684b47c1f91f3cdbd5739d946a:W_NWZjFz5Y9or1oss7mNnJUlkqmES-rL1eNHrjjoU-xK8J3d5xCwhWERBUbVC-qAcupLXp9XRB5Si9KmyXDPHw==<table><tr><td style="font-weight:bold;vertical-align:top;">comment</td><td style="vertical-align:top;">:</td><td><div></div></td></tr><tr><td style="font-weight:bold;vertical-align:top;">domain</td><td style="vertical-align:top;">:</td><td><div></div></td></tr><tr><td style="font-weight:bold;vertical-align:top;">expires</td><td style="vertical-align:top;">:</td><td><div></div></td></tr><tr><td style="font-weight:bold;vertical-align:top;">httponly</td><td style="vertical-align:top;">:</td><td><div></div></td></tr><tr><td style="font-weight:bold;vertical-align:top;">max-age</td><td style="vertical-align:top;">:</td><td><div></div></td></tr><tr><td style="font-weight:bold;vertical-align:top;">path</td><td style="vertical-align:top;">:</td><td><div></div></td></tr><tr><td style="font-weight:bold;vertical-align:top;">samesite</td><td style="vertical-align:top;">:</td><td><div></div></td></tr><tr><td style="font-weight:bold;vertical-align:top;">secure</td><td style="vertical-align:top;">:</td><td><div></div></td></tr><tr><td style="font-weight:bold;vertical-align:top;">version</td><td style="vertical-align:top;">:</td><td><div></div></td></tr></table></div></td></tr><tr><td style="font-weight:bold;vertical-align:top;">session_id_admin</td><td style="vertical-align:top;">:</td><td><div>127.0.0.1-9d988f07-a0cc-4d6f-950b-782595e38a60<table><tr><td style="font-weight:bold;vertical-align:top;">comment</td><td style="vertical-align:top;">:</td><td><div></div></td></tr><tr><td style="font-weight:bold;vertical-align:top;">domain</td><td style="vertical-align:top;">:</td><td><div></div></td></tr><tr><td style="font-weight:bold;vertical-align:top;">expires</td><td style="vertical-align:top;">:</td><td><div></div></td></tr><tr><td style="font-weight:bold;vertical-align:top;">httponly</td><td style="vertical-align:top;">:</td><td><div></div></td></tr><tr><td style="font-weight:bold;vertical-align:top;">max-age</td><td style="vertical-align:top;">:</td><td><div></div></td></tr><tr><td style="font-weight:bold;vertical-align:top;">path</td><td style="vertical-align:top;">:</td><td><div></div></td></tr><tr><td style="font-weight:bold;vertical-align:top;">samesite</td><td style="vertical-align:top;">:</td><td><div></div></td></tr><tr><td style="font-weight:bold;vertical-align:top;">secure</td><td style="vertical-align:top;">:</td><td><div></div></td></tr><tr><td style="font-weight:bold;vertical-align:top;">version</td><td style="vertical-align:top;">:</td><td><div></div></td></tr></table></div></td></tr><tr><td style="font-weight:bold;vertical-align:top;">session_id_appliances</td><td style="vertical-align:top;">:</td><td><div>127.0.0.1-6c1ed79f-b641-4245-87f5-946e18681934<table><tr><td style="font-weight:bold;vertical-align:top;">comment</td><td style="vertical-align:top;">:</td><td><div></div></td></tr><tr><td style="font-weight:bold;vertical-align:top;">domain</td><td style="vertical-align:top;">:</td><td><div></div></td></tr><tr><td style="font-weight:bold;vertical-align:top;">expires</td><td style="vertical-align:top;">:</td><td><div></div></td></tr><tr><td style="font-weight:bold;vertical-align:top;">httponly</td><td style="vertical-align:top;">:</td><td><div></div></td></tr><tr><td style="font-weight:bold;vertical-align:top;">max-age</td><td style="vertical-align:top;">:</td><td><div></div></td></tr><tr><td style="font-weight:bold;vertical-align:top;">path</td><td style="vertical-align:top;">:</td><td><div></div></td></tr><tr><td style="font-weight:bold;vertical-align:top;">samesite</td><td style="vertical-align:top;">:</td><td><div></div></td></tr><tr><td style="font-weight:bold;vertical-align:top;">secure</td><td style="vertical-align:top;">:</td><td><div></div></td></tr><tr><td style="font-weight:bold;vertical-align:top;">version</td><td style="vertical-align:top;">:</td><td><div></div></td></tr></table></div></td></tr><tr><td style="font-weight:bold;vertical-align:top;">session_id_bingapi</td><td style="vertical-align:top;">:</td><td><div>127.0.0.1-8b30e24c-f27b-4dc2-8bfb-2b67f15bf7a1<table><tr><td style="font-weight:bold;vertical-align:top;">comment</td><td style="vertical-align:top;">:</td><td><div></div></td></tr><tr><td style="font-weight:bold;vertical-align:top;">domain</td><td style="vertical-align:top;">:</td><td><div></div></td></tr><tr><td style="font-weight:bold;vertical-align:top;">expires</td><td style="vertical-align:top;">:</td><td><div></div></td></tr><tr><td style="font-weight:bold;vertical-align:top;">httponly</td><td style="vertical-align:top;">:</td><td><div></div></td></tr><tr><td style="font-weight:bold;vertical-align:top;">max-age</td><td style="vertical-align:top;">:</td><td><div></div></td></tr><tr><td style="font-weight:bold;vertical-align:top;">path</td><td style="vertical-align:top;">:</td><td><div></div></td></tr><tr><td style="font-weight:bold;vertical-align:top;">samesite</td><td style="vertical-align:top;">:</td><td><div></div></td></tr><tr><td style="font-weight:bold;vertical-align:top;">secure</td><td style="vertical-align:top;">:</td><td><div></div></td></tr><tr><td style="font-weight:bold;vertical-align:top;">version</td><td style="vertical-align:top;">:</td><td><div></div></td></tr></table></div></td></tr><tr><td style="font-weight:bold;vertical-align:top;">session_id_chats</td><td style="vertical-align:top;">:</td><td><div>127.0.0.1-4679b997-e595-4ac5-8916-93afe3c846fa<table><tr><td style="font-weight:bold;vertical-align:top;">comment</td><td style="vertical-align:top;">:</td><td><div></div></td></tr><tr><td style="font-weight:bold;vertical-align:top;">domain</td><td style="vertical-align:top;">:</td><td><div></div></td></tr><tr><td style="font-weight:bold;vertical-align:top;">expires</td><td style="vertical-align:top;">:</td><td><div></div></td></tr><tr><td style="font-weight:bold;vertical-align:top;">httponly</td><td style="vertical-align:top;">:</td><td><div></div></td></tr><tr><td style="font-weight:bold;vertical-align:top;">max-age</td><td style="vertical-align:top;">:</td><td><div></div></td></tr><tr><td style="font-weight:bold;vertical-align:top;">path</td><td style="vertical-align:top;">:</td><td><div></div></td></tr><tr><td style="font-weight:bold;vertical-align:top;">samesite</td><td style="vertical-align:top;">:</td><td><div></div></td></tr><tr><td style="font-weight:bold;vertical-align:top;">secure</td><td style="vertical-align:top;">:</td><td><div></div></td></tr><tr><td style="font-weight:bold;vertical-align:top;">version</td><td style="vertical-align:top;">:</td><td><div></div></td></tr></table></div></td></tr><tr><td style="font-weight:bold;vertical-align:top;">session_id_dropzone</td><td style="vertical-align:top;">:</td><td><div>127.0.0.1-c1e13eda-88d3-41ca-b23d-f2a59e8449e4<table><tr><td style="font-weight:bold;vertical-align:top;">comment</td><td style="vertical-align:top;">:</td><td><div></div></td></tr><tr><td style="font-weight:bold;vertical-align:top;">domain</td><td style="vertical-align:top;">:</td><td><div></div></td></tr><tr><td style="font-weight:bold;vertical-align:top;">expires</td><td style="vertical-align:top;">:</td><td><div></div></td></tr><tr><td style="font-weight:bold;vertical-align:top;">httponly</td><td style="vertical-align:top;">:</td><td><div></div></td></tr><tr><td style="font-weight:bold;vertical-align:top;">max-age</td><td style="vertical-align:top;">:</td><td><div></div></td></tr><tr><td style="font-weight:bold;vertical-align:top;">path</td><td style="vertical-align:top;">:</td><td><div></div></td></tr><tr><td style="font-weight:bold;vertical-align:top;">samesite</td><td style="vertical-align:top;">:</td><td><div></div></td></tr><tr><td style="font-weight:bold;vertical-align:top;">secure</td><td style="vertical-align:top;">:</td><td><div></div></td></tr><tr><td style="font-weight:bold;vertical-align:top;">version</td><td style="vertical-align:top;">:</td><td><div></div></td></tr></table></div></td></tr><tr><td style="font-weight:bold;vertical-align:top;">session_id_emailcontactform</td><td style="vertical-align:top;">:</td><td><div>127.0.0.1-f2d529c1-0a2d-4546-816b-0a686161925a<table><tr><td style="font-weight:bold;vertical-align:top;">comment</td><td style="vertical-align:top;">:</td><td><div></div></td></tr><tr><td style="font-weight:bold;vertical-align:top;">domain</td><td style="vertical-align:top;">:</td><td><div></div></td></tr><tr><td style="font-weight:bold;vertical-align:top;">expires</td><td style="vertical-align:top;">:</td><td><div></div></td></tr><tr><td style="font-weight:bold;vertical-align:top;">httponly</td><td style="vertical-align:top;">:</td><td><div></div></td></tr><tr><td style="font-weight:bold;vertical-align:top;">max-age</td><td style="vertical-align:top;">:</td><td><div></div></td></tr><tr><td style="font-weight:bold;vertical-align:top;">path</td><td style="vertical-align:top;">:</td><td><div></div></td></tr><tr><td style="font-weight:bold;vertical-align:top;">samesite</td><td style="vertical-align:top;">:</td><td><div></div></td></tr><tr><td style="font-weight:bold;vertical-align:top;">secure</td><td style="vertical-align:top;">:</td><td><div></div></td></tr><tr><td style="font-weight:bold;vertical-align:top;">version</td><td style="vertical-align:top;">:</td><td><div></div></td></tr></table></div></td></tr><tr><td style="font-weight:bold;vertical-align:top;">session_id_examples</td><td style="vertical-align:top;">:</td><td><div>True<table><tr><td style="font-weight:bold;vertical-align:top;">comment</td><td style="vertical-align:top;">:</td><td><div></div></td></tr><tr><td style="font-weight:bold;vertical-align:top;">domain</td><td style="vertical-align:top;">:</td><td><div></div></td></tr><tr><td style="font-weight:bold;vertical-align:top;">expires</td><td style="vertical-align:top;">:</td><td><div></div></td></tr><tr><td style="font-weight:bold;vertical-align:top;">httponly</td><td style="vertical-align:top;">:</td><td><div></div></td></tr><tr><td style="font-weight:bold;vertical-align:top;">max-age</td><td style="vertical-align:top;">:</td><td><div></div></td></tr><tr><td style="font-weight:bold;vertical-align:top;">path</td><td style="vertical-align:top;">:</td><td><div></div></td></tr><tr><td style="font-weight:bold;vertical-align:top;">samesite</td><td style="vertical-align:top;">:</td><td><div></div></td></tr><tr><td style="font-weight:bold;vertical-align:top;">secure</td><td style="vertical-align:top;">:</td><td><div></div></td></tr><tr><td style="font-weight:bold;vertical-align:top;">version</td><td style="vertical-align:top;">:</td><td><div></div></td></tr></table></div></td></tr><tr><td style="font-weight:bold;vertical-align:top;">session_id_facebookclone</td><td style="vertical-align:top;">:</td><td><div>127.0.0.1-a75c74e3-ee73-442e-982e-7eae71c72d91<table><tr><td style="font-weight:bold;vertical-align:top;">comment</td><td style="vertical-align:top;">:</td><td><div></div></td></tr><tr><td style="font-weight:bold;vertical-align:top;">domain</td><td style="vertical-align:top;">:</td><td><div></div></td></tr><tr><td style="font-weight:bold;vertical-align:top;">expires</td><td style="vertical-align:top;">:</td><td><div></div></td></tr><tr><td style="font-weight:bold;vertical-align:top;">httponly</td><td style="vertical-align:top;">:</td><td><div></div></td></tr><tr><td style="font-weight:bold;vertical-align:top;">max-age</td><td style="vertical-align:top;">:</td><td><div></div></td></tr><tr><td style="font-weight:bold;vertical-align:top;">path</td><td style="vertical-align:top;">:</td><td><div></div></td></tr><tr><td style="font-weight:bold;vertical-align:top;">samesite</td><td style="vertical-align:top;">:</td><td><div></div></td></tr><tr><td style="font-weight:bold;vertical-align:top;">secure</td><td style="vertical-align:top;">:</td><td><div></div></td></tr><tr><td style="font-weight:bold;vertical-align:top;">version</td><td style="vertical-align:top;">:</td><td><div></div></td></tr></table></div></td></tr><tr><td style="font-weight:bold;vertical-align:top;">session_id_filetreebrowser</td><td style="vertical-align:top;">:</td><td><div>127.0.0.1-aa3eb022-b980-437c-aef2-7da03b6e647b<table><tr><td style="font-weight:bold;vertical-align:top;">comment</td><td style="vertical-align:top;">:</td><td><div></div></td></tr><tr><td style="font-weight:bold;vertical-align:top;">domain</td><td style="vertical-align:top;">:</td><td><div></div></td></tr><tr><td style="font-weight:bold;vertical-align:top;">expires</td><td style="vertical-align:top;">:</td><td><div></div></td></tr><tr><td style="font-weight:bold;vertical-align:top;">httponly</td><td style="vertical-align:top;">:</td><td><div></div></td></tr><tr><td style="font-weight:bold;vertical-align:top;">max-age</td><td style="vertical-align:top;">:</td><td><div></div></td></tr><tr><td style="font-weight:bold;vertical-align:top;">path</td><td style="vertical-align:top;">:</td><td><div></div></td></tr><tr><td style="font-weight:bold;vertical-align:top;">samesite</td><td style="vertical-align:top;">:</td><td><div></div></td></tr><tr><td style="font-weight:bold;vertical-align:top;">secure</td><td style="vertical-align:top;">:</td><td><div></div></td></tr><tr><td style="font-weight:bold;vertical-align:top;">version</td><td style="vertical-align:top;">:</td><td><div></div></td></tr></table></div></td></tr><tr><td style="font-weight:bold;vertical-align:top;">session_id_geolocatebyip</td><td style="vertical-align:top;">:</td><td><div>127.0.0.1-bb1893cc-7ace-44d5-924a-c07f3e9ff781<table><tr><td style="font-weight:bold;vertical-align:top;">comment</td><td style="vertical-align:top;">:</td><td><div></div></td></tr><tr><td style="font-weight:bold;vertical-align:top;">domain</td><td style="vertical-align:top;">:</td><td><div></div></td></tr><tr><td style="font-weight:bold;vertical-align:top;">expires</td><td style="vertical-align:top;">:</td><td><div></div></td></tr><tr><td style="font-weight:bold;vertical-align:top;">httponly</td><td style="vertical-align:top;">:</td><td><div></div></td></tr><tr><td style="font-weight:bold;vertical-align:top;">max-age</td><td style="vertical-align:top;">:</td><td><div></div></td></tr><tr><td style="font-weight:bold;vertical-align:top;">path</td><td style="vertical-align:top;">:</td><td><div></div></td></tr><tr><td style="font-weight:bold;vertical-align:top;">samesite</td><td style="vertical-align:top;">:</td><td><div></div></td></tr><tr><td style="font-weight:bold;vertical-align:top;">secure</td><td style="vertical-align:top;">:</td><td><div></div></td></tr><tr><td style="font-weight:bold;vertical-align:top;">version</td><td style="vertical-align:top;">:</td><td><div></div></td></tr></table></div></td></tr><tr><td style="font-weight:bold;vertical-align:top;">session_id_helpmehelpyou</td><td style="vertical-align:top;">:</td><td><div>127.0.0.1-de445e7b-b739-42ed-95b0-33a4dfd722e2<table><tr><td style="font-weight:bold;vertical-align:top;">comment</td><td style="vertical-align:top;">:</td><td><div></div></td></tr><tr><td style="font-weight:bold;vertical-align:top;">domain</td><td style="vertical-align:top;">:</td><td><div></div></td></tr><tr><td style="font-weight:bold;vertical-align:top;">expires</td><td style="vertical-align:top;">:</td><td><div></div></td></tr><tr><td style="font-weight:bold;vertical-align:top;">httponly</td><td style="vertical-align:top;">:</td><td><div></div></td></tr><tr><td style="font-weight:bold;vertical-align:top;">max-age</td><td style="vertical-align:top;">:</td><td><div></div></td></tr><tr><td style="font-weight:bold;vertical-align:top;">path</td><td style="vertical-align:top;">:</td><td><div></div></td></tr><tr><td style="font-weight:bold;vertical-align:top;">samesite</td><td style="vertical-align:top;">:</td><td><div></div></td></tr><tr><td style="font-weight:bold;vertical-align:top;">secure</td><td style="vertical-align:top;">:</td><td><div></div></td></tr><tr><td style="font-weight:bold;vertical-align:top;">version</td><td style="vertical-align:top;">:</td><td><div></div></td></tr></table></div></td></tr><tr><td style="font-weight:bold;vertical-align:top;">session_id_imagegallery</td><td style="vertical-align:top;">:</td><td><div>127.0.0.1-c90ce7cf-bba6-4d3d-9930-00790bda270d<table><tr><td style="font-weight:bold;vertical-align:top;">comment</td><td style="vertical-align:top;">:</td><td><div></div></td></tr><tr><td style="font-weight:bold;vertical-align:top;">domain</td><td style="vertical-align:top;">:</td><td><div></div></td></tr><tr><td style="font-weight:bold;vertical-align:top;">expires</td><td style="vertical-align:top;">:</td><td><div></div></td></tr><tr><td style="font-weight:bold;vertical-align:top;">httponly</td><td style="vertical-align:top;">:</td><td><div></div></td></tr><tr><td style="font-weight:bold;vertical-align:top;">max-age</td><td style="vertical-align:top;">:</td><td><div></div></td></tr><tr><td style="font-weight:bold;vertical-align:top;">path</td><td style="vertical-align:top;">:</td><td><div></div></td></tr><tr><td style="font-weight:bold;vertical-align:top;">samesite</td><td style="vertical-align:top;">:</td><td><div></div></td></tr><tr><td style="font-weight:bold;vertical-align:top;">secure</td><td style="vertical-align:top;">:</td><td><div></div></td></tr><tr><td style="font-weight:bold;vertical-align:top;">version</td><td style="vertical-align:top;">:</td><td><div></div></td></tr></table></div></td></tr><tr><td style="font-weight:bold;vertical-align:top;">session_id_kpax2</td><td style="vertical-align:top;">:</td><td><div>127.0.0.1-db0ed2bd-bf57-4260-b942-b6c741a680aa<table><tr><td style="font-weight:bold;vertical-align:top;">comment</td><td style="vertical-align:top;">:</td><td><div></div></td></tr><tr><td style="font-weight:bold;vertical-align:top;">domain</td><td style="vertical-align:top;">:</td><td><div></div></td></tr><tr><td style="font-weight:bold;vertical-align:top;">expires</td><td style="vertical-align:top;">:</td><td><div></div></td></tr><tr><td style="font-weight:bold;vertical-align:top;">httponly</td><td style="vertical-align:top;">:</td><td><div></div></td></tr><tr><td style="font-weight:bold;vertical-align:top;">max-age</td><td style="vertical-align:top;">:</td><td><div></div></td></tr><tr><td style="font-weight:bold;vertical-align:top;">path</td><td style="vertical-align:top;">:</td><td><div></div></td></tr><tr><td style="font-weight:bold;vertical-align:top;">samesite</td><td style="vertical-align:top;">:</td><td><div></div></td></tr><tr><td style="font-weight:bold;vertical-align:top;">secure</td><td style="vertical-align:top;">:</td><td><div></div></td></tr><tr><td style="font-weight:bold;vertical-align:top;">version</td><td style="vertical-align:top;">:</td><td><div></div></td></tr></table></div></td></tr><tr><td style="font-weight:bold;vertical-align:top;">session_id_message_system</td><td style="vertical-align:top;">:</td><td><div>127.0.0.1-241749a6-3b01-4986-9c92-7034286cbe17<table><tr><td style="font-weight:bold;vertical-align:top;">comment</td><td style="vertical-align:top;">:</td><td><div></div></td></tr><tr><td style="font-weight:bold;vertical-align:top;">domain</td><td style="vertical-align:top;">:</td><td><div></div></td></tr><tr><td style="font-weight:bold;vertical-align:top;">expires</td><td style="vertical-align:top;">:</td><td><div></div></td></tr><tr><td style="font-weight:bold;vertical-align:top;">httponly</td><td style="vertical-align:top;">:</td><td><div></div></td></tr><tr><td style="font-weight:bold;vertical-align:top;">max-age</td><td style="vertical-align:top;">:</td><td><div></div></td></tr><tr><td style="font-weight:bold;vertical-align:top;">path</td><td style="vertical-align:top;">:</td><td><div></div></td></tr><tr><td style="font-weight:bold;vertical-align:top;">samesite</td><td style="vertical-align:top;">:</td><td><div></div></td></tr><tr><td style="font-weight:bold;vertical-align:top;">secure</td><td style="vertical-align:top;">:</td><td><div></div></td></tr><tr><td style="font-weight:bold;vertical-align:top;">version</td><td style="vertical-align:top;">:</td><td><div></div></td></tr></table></div></td></tr><tr><td style="font-weight:bold;vertical-align:top;">session_id_redditclone</td><td style="vertical-align:top;">:</td><td><div>127.0.0.1-d05f7f21-2dfe-4adb-9466-d17efedad6a4<table><tr><td style="font-weight:bold;vertical-align:top;">comment</td><td style="vertical-align:top;">:</td><td><div></div></td></tr><tr><td style="font-weight:bold;vertical-align:top;">domain</td><td style="vertical-align:top;">:</td><td><div></div></td></tr><tr><td style="font-weight:bold;vertical-align:top;">expires</td><td style="vertical-align:top;">:</td><td><div></div></td></tr><tr><td style="font-weight:bold;vertical-align:top;">httponly</td><td style="vertical-align:top;">:</td><td><div></div></td></tr><tr><td style="font-weight:bold;vertical-align:top;">max-age</td><td style="vertical-align:top;">:</td><td><div></div></td></tr><tr><td style="font-weight:bold;vertical-align:top;">path</td><td style="vertical-align:top;">:</td><td><div></div></td></tr><tr><td style="font-weight:bold;vertical-align:top;">samesite</td><td style="vertical-align:top;">:</td><td><div></div></td></tr><tr><td style="font-weight:bold;vertical-align:top;">secure</td><td style="vertical-align:top;">:</td><td><div></div></td></tr><tr><td style="font-weight:bold;vertical-align:top;">version</td><td style="vertical-align:top;">:</td><td><div></div></td></tr></table></div></td></tr><tr><td style="font-weight:bold;vertical-align:top;">session_id_tinywebsite</td><td style="vertical-align:top;">:</td><td><div>2:b76915a7-d6db-4735-94e3-9ac83db2cead<table><tr><td style="font-weight:bold;vertical-align:top;">comment</td><td style="vertical-align:top;">:</td><td><div></div></td></tr><tr><td style="font-weight:bold;vertical-align:top;">domain</td><td style="vertical-align:top;">:</td><td><div></div></td></tr><tr><td style="font-weight:bold;vertical-align:top;">expires</td><td style="vertical-align:top;">:</td><td><div></div></td></tr><tr><td style="font-weight:bold;vertical-align:top;">httponly</td><td style="vertical-align:top;">:</td><td><div></div></td></tr><tr><td style="font-weight:bold;vertical-align:top;">max-age</td><td style="vertical-align:top;">:</td><td><div></div></td></tr><tr><td style="font-weight:bold;vertical-align:top;">path</td><td style="vertical-align:top;">:</td><td><div></div></td></tr><tr><td style="font-weight:bold;vertical-align:top;">samesite</td><td style="vertical-align:top;">:</td><td><div></div></td></tr><tr><td style="font-weight:bold;vertical-align:top;">secure</td><td style="vertical-align:top;">:</td><td><div></div></td></tr><tr><td style="font-weight:bold;vertical-align:top;">version</td><td style="vertical-align:top;">:</td><td><div></div></td></tr></table></div></td></tr><tr><td style="font-weight:bold;vertical-align:top;">session_id_uploadandsharefiles</td><td style="vertical-align:top;">:</td><td><div>127.0.0.1-1d054272-c601-4242-8095-8f79d3cf4898<table><tr><td style="font-weight:bold;vertical-align:top;">comment</td><td style="vertical-align:top;">:</td><td><div></div></td></tr><tr><td style="font-weight:bold;vertical-align:top;">domain</td><td style="vertical-align:top;">:</td><td><div></div></td></tr><tr><td style="font-weight:bold;vertical-align:top;">expires</td><td style="vertical-align:top;">:</td><td><div></div></td></tr><tr><td style="font-weight:bold;vertical-align:top;">httponly</td><td style="vertical-align:top;">:</td><td><div></div></td></tr><tr><td style="font-weight:bold;vertical-align:top;">max-age</td><td style="vertical-align:top;">:</td><td><div></div></td></tr><tr><td style="font-weight:bold;vertical-align:top;">path</td><td style="vertical-align:top;">:</td><td><div></div></td></tr><tr><td style="font-weight:bold;vertical-align:top;">samesite</td><td style="vertical-align:top;">:</td><td><div></div></td></tr><tr><td style="font-weight:bold;vertical-align:top;">secure</td><td style="vertical-align:top;">:</td><td><div></div></td></tr><tr><td style="font-weight:bold;vertical-align:top;">version</td><td style="vertical-align:top;">:</td><td><div></div></td></tr></table></div></td></tr><tr><td style="font-weight:bold;vertical-align:top;">session_id_videolibrary</td><td style="vertical-align:top;">:</td><td><div>127.0.0.1-66697a12-1bb0-4698-990f-7dc69f05b041<table><tr><td style="font-weight:bold;vertical-align:top;">comment</td><td style="vertical-align:top;">:</td><td><div></div></td></tr><tr><td style="font-weight:bold;vertical-align:top;">domain</td><td style="vertical-align:top;">:</td><td><div></div></td></tr><tr><td style="font-weight:bold;vertical-align:top;">expires</td><td style="vertical-align:top;">:</td><td><div></div></td></tr><tr><td style="font-weight:bold;vertical-align:top;">httponly</td><td style="vertical-align:top;">:</td><td><div></div></td></tr><tr><td style="font-weight:bold;vertical-align:top;">max-age</td><td style="vertical-align:top;">:</td><td><div></div></td></tr><tr><td style="font-weight:bold;vertical-align:top;">path</td><td style="vertical-align:top;">:</td><td><div></div></td></tr><tr><td style="font-weight:bold;vertical-align:top;">samesite</td><td style="vertical-align:top;">:</td><td><div></div></td></tr><tr><td style="font-weight:bold;vertical-align:top;">secure</td><td style="vertical-align:top;">:</td><td><div></div></td></tr><tr><td style="font-weight:bold;vertical-align:top;">version</td><td style="vertical-align:top;">:</td><td><div></div></td></tr></table></div></td></tr><tr><td style="font-weight:bold;vertical-align:top;">session_id_welcome</td><td style="vertical-align:top;">:</td><td><div>127.0.0.1-2df12add-acb6-4d8f-b5c1-af005b591d8b<table><tr><td style="font-weight:bold;vertical-align:top;">comment</td><td style="vertical-align:top;">:</td><td><div></div></td></tr><tr><td style="font-weight:bold;vertical-align:top;">domain</td><td style="vertical-align:top;">:</td><td><div></div></td></tr><tr><td style="font-weight:bold;vertical-align:top;">expires</td><td style="vertical-align:top;">:</td><td><div></div></td></tr><tr><td style="font-weight:bold;vertical-align:top;">httponly</td><td style="vertical-align:top;">:</td><td><div></div></td></tr><tr><td style="font-weight:bold;vertical-align:top;">max-age</td><td style="vertical-align:top;">:</td><td><div></div></td></tr><tr><td style="font-weight:bold;vertical-align:top;">path</td><td style="vertical-align:top;">:</td><td><div></div></td></tr><tr><td style="font-weight:bold;vertical-align:top;">samesite</td><td style="vertical-align:top;">:</td><td><div></div></td></tr><tr><td style="font-weight:bold;vertical-align:top;">secure</td><td style="vertical-align:top;">:</td><td><div></div></td></tr><tr><td style="font-weight:bold;vertical-align:top;">version</td><td style="vertical-align:top;">:</td><td><div></div></td></tr></table></div></td></tr></table></div></td></tr><tr><td style="font-weight:bold;vertical-align:top;">env</td><td style="vertical-align:top;">:</td><td><div><table><tr><td style="font-weight:bold;vertical-align:top;">HTTP_ACCEPT</td><td style="vertical-align:top;">:</td><td><div>text/html,application/xhtml+xml,application/xml;q=0.9,image/webp,image/apng,*/*;q=0.8</div></td></tr><tr><td style="font-weight:bold;vertical-align:top;">HTTP_ACCEPT_ENCODING</td><td style="vertical-align:top;">:</td><td><div>gzip, deflate, br</div></td></tr><tr><td style="font-weight:bold;vertical-align:top;">HTTP_ACCEPT_LANGUAGE</td><td style="vertical-align:top;">:</td><td><div>en-US,en;q=0.9</div></td></tr><tr><td style="font-weight:bold;vertical-align:top;">HTTP_CONNECTION</td><td style="vertical-align:top;">:</td><td><div>keep-alive</div></td></tr><tr><td style="font-weight:bold;vertical-align:top;">HTTP_COOKIE</td><td style="vertical-align:top;">:</td><td><div>session_id_emailcontactform=127.0.0.1-f2d529c1-0a2d-4546-816b-0a686161925a; session_id_redditclone=127.0.0.1-d05f7f21-2dfe-4adb-9466-d17efedad6a4; session_id_bingapi=127.0.0.1-8b30e24c-f27b-4dc2-8bfb-2b67f15bf7a1; session_id_dropzone=127.0.0.1-c1e13eda-88d3-41ca-b23d-f2a59e8449e4; session_id_filetreebrowser=127.0.0.1-aa3eb022-b980-437c-aef2-7da03b6e647b; session_id_videolibrary=127.0.0.1-66697a12-1bb0-4698-990f-7dc69f05b041; session_id_tinywebsite=&quot;2:b76915a7-d6db-4735-94e3-9ac83db2cead&quot;; session_id_appliances=127.0.0.1-6c1ed79f-b641-4245-87f5-946e18681934; session_id_examples=True; session_data_examples=&quot;hmac256:55d6ab81b49a2bc05158984cc77db078b7048b684b47c1f91f3cdbd5739d946a:W_NWZjFz5Y9or1oss7mNnJUlkqmES-rL1eNHrjjoU-xK8J3d5xCwhWERBUbVC-qAcupLXp9XRB5Si9KmyXDPHw==&quot;; session_id_geolocatebyip=127.0.0.1-bb1893cc-7ace-44d5-924a-c07f3e9ff781; session_id_imagegallery=127.0.0.1-c90ce7cf-bba6-4d3d-9930-00790bda270d; session_id_chats=127.0.0.1-4679b997-e595-4ac5-8916-93afe3c846fa; session_id_admin=127.0.0.1-9d988f07-a0cc-4d6f-950b-782595e38a60; session_id_uploadandsharefiles=127.0.0.1-1d054272-c601-4242-8095-8f79d3cf4898; session_id_message_system=127.0.0.1-241749a6-3b01-4986-9c92-7034286cbe17; session_id_helpmehelpyou=127.0.0.1-de445e7b-b739-42ed-95b0-33a4dfd722e2; session_id_kpax2=127.0.0.1-db0ed2bd-bf57-4260-b942-b6c741a680aa; session_id_facebookclone=127.0.0.1-a75c74e3-ee73-442e-982e-7eae71c72d91; session_id_welcome=127.0.0.1-2df12add-acb6-4d8f-b5c1-af005b591d8b</div></td></tr><tr><td style="font-weight:bold;vertical-align:top;">HTTP_HOST</td><td style="vertical-align:top;">:</td><td><div>127.0.0.1:8000</div></td></tr><tr><td style="font-weight:bold;vertical-align:top;">HTTP_REFERER</td><td style="vertical-align:top;">:</td><td><div>http://127.0.0.1:8000/KPax2/chats/create_chat</div></td></tr><tr><td style="font-weight:bold;vertical-align:top;">HTTP_UPGRADE_INSECURE_REQUESTS</td><td style="vertical-align:top;">:</td><td><div>1</div></td></tr><tr><td style="font-weight:bold;vertical-align:top;">HTTP_USER_AGENT</td><td style="vertical-align:top;">:</td><td><div>Mozilla/5.0 (Macintosh; Intel Mac OS X 10_12_6) AppleWebKit/537.36 (KHTML, like Gecko) Chrome/70.0.3538.102 Safari/537.36</div></td></tr><tr><td style="font-weight:bold;vertical-align:top;">PATH_INFO</td><td style="vertical-align:top;">:</td><td><div>/KPax2/chats</div></td></tr><tr><td style="font-weight:bold;vertical-align:top;">QUERY_STRING</td><td style="vertical-align:top;">:</td><td><div></div></td></tr><tr><td style="font-weight:bold;vertical-align:top;">REMOTE_ADDR</td><td style="vertical-align:top;">:</td><td><div>127.0.0.1</div></td></tr><tr><td style="font-weight:bold;vertical-align:top;">REMOTE_PORT</td><td style="vertical-align:top;">:</td><td><div>50931</div></td></tr><tr><td style="font-weight:bold;vertical-align:top;">REQUEST_METHOD</td><td style="vertical-align:top;">:</td><td><div>GET</div></td></tr><tr><td style="font-weight:bold;vertical-align:top;">SCRIPT_NAME</td><td style="vertical-align:top;">:</td><td><div></div></td></tr><tr><td style="font-weight:bold;vertical-align:top;">SERVER_NAME</td><td style="vertical-align:top;">:</td><td><div>jadetop.local</div></td></tr><tr><td style="font-weight:bold;vertical-align:top;">SERVER_PORT</td><td style="vertical-align:top;">:</td><td><div>8000</div></td></tr><tr><td style="font-weight:bold;vertical-align:top;">SERVER_PROTOCOL</td><td style="vertical-align:top;">:</td><td><div>HTTP/1.1</div></td></tr><tr><td style="font-weight:bold;vertical-align:top;">SERVER_SOFTWARE</td><td style="vertical-align:top;">:</td><td><div>Rocket 1.2.6</div></td></tr><tr><td style="font-weight:bold;vertical-align:top;">app_folders</td><td style="vertical-align:top;">:</td><td><div>set([&#x27;/Users/jade/Downloads/web2py/applications/welcome/&#x27;, &#x27;/Users/jade/Downloads/web2py/applications/KPax2/&#x27;, &#x27;/Users/jade/Downloads/web2py/applications/admin/&#x27;])</div></td></tr><tr><td style="font-weight:bold;vertical-align:top;">applications_parent</td><td style="vertical-align:top;">:</td><td><div>/Users/jade/Downloads/web2py</div></td></tr><tr><td style="font-weight:bold;vertical-align:top;">cmd_args</td><td style="vertical-align:top;">:</td><td><div><table></table></div></td></tr><tr><td style="font-weight:bold;vertical-align:top;">cmd_options</td><td style="vertical-align:top;">:</td><td><div>&lt;Values at 0x104122440: {&#x27;verbose&#x27;: False, &#x27;ip&#x27;: &#x27;127.0.0.1&#x27;, &#x27;debuglevel&#x27;: 30, &#x27;with_scheduler&#x27;: False, &#x27;shutdown_timeout&#x27;: 5, &#x27;taskbar&#x27;: False, &#x27;with_coverage&#x27;: False, &#x27;pid_filename&#x27;: &#x27;httpserver.pid&#x27;, &#x27;maxthreads&#x27;: None, &#x27;softcron&#x27;: False, &#x27;server_name&#x27;: &#x27;jadetop.local&#x27;, &#x27;bpython&#x27;: False, &#x27;nogui&#x27;: False, &#x27;port&#x27;: 8000, &#x27;print_errors&#x27;: False, &#x27;extcron&#x27;: False, &#x27;runcron&#x27;: False, &#x27;run_system_tests&#x27;: False, &#x27;test&#x27;: None, &#x27;folder&#x27;: &#x27;/Users/jade/Downloads/web2py&#x27;, &#x27;config&#x27;: &#x27;&#x27;, &#x27;minthreads&#x27;: None, &#x27;shell&#x27;: None, &#x27;run&#x27;: &#x27;&#x27;, &#x27;log_filename&#x27;: &#x27;httpserver.log&#x27;, &#x27;profiler_dir&#x27;: None, &#x27;args&#x27;: [&#x27;&#x27;], &#x27;socket_timeout&#x27;: 5, &#x27;ssl_ca_certificate&#x27;: None, &#x27;scheduler&#x27;: None, &#x27;interfaces&#x27;: None, &#x27;ssl_private_key&#x27;: &#x27;&#x27;, &#x27;gae&#x27;: None, &#x27;password&#x27;: &#x27;******&#x27;, &#x27;request_queue_size&#x27;: 5, &#x27;ssl_certificate&#x27;: &#x27;&#x27;, &#x27;cronjob&#x27;: False, &#x27;numthreads&#x27;: None, &#x27;quiet&#x27;: False, &#x27;import_models&#x27;: False, &#x27;timeout&#x27;: 10, &#x27;plain&#x27;: False, &#x27;nobanner&#x27;: False}&gt;</div></td></tr><tr><td style="font-weight:bold;vertical-align:top;">db_sessions</td><td style="vertical-align:top;">:</td><td><div>set([])</div></td></tr><tr><td style="font-weight:bold;vertical-align:top;">debugging</td><td style="vertical-align:top;">:</td><td><div>True</div></td></tr><tr><td style="font-weight:bold;vertical-align:top;">gluon_parent</td><td style="vertical-align:top;">:</td><td><div>/Users/jade/Downloads/web2py</div></td></tr><tr><td style="font-weight:bold;vertical-align:top;">http_accept</td><td style="vertical-align:top;">:</td><td><div>text/html,application/xhtml+xml,application/xml;q=0.9,image/webp,image/apng,*/*;q=0.8</div></td></tr><tr><td style="font-weight:bold;vertical-align:top;">http_accept_encoding</td><td style="vertical-align:top;">:</td><td><div>gzip, deflate, br</div></td></tr><tr><td style="font-weight:bold;vertical-align:top;">http_accept_language</td><td style="vertical-align:top;">:</td><td><div>en-US,en;q=0.9</div></td></tr><tr><td style="font-weight:bold;vertical-align:top;">http_connection</td><td style="vertical-align:top;">:</td><td><div>keep-alive</div></td></tr><tr><td style="font-weight:bold;vertical-align:top;">http_cookie</td><td style="vertical-align:top;">:</td><td><div>session_id_emailcontactform=127.0.0.1-f2d529c1-0a2d-4546-816b-0a686161925a; session_id_redditclone=127.0.0.1-d05f7f21-2dfe-4adb-9466-d17efedad6a4; session_id_bingapi=127.0.0.1-8b30e24c-f27b-4dc2-8bfb-2b67f15bf7a1; session_id_dropzone=127.0.0.1-c1e13eda-88d3-41ca-b23d-f2a59e8449e4; session_id_filetreebrowser=127.0.0.1-aa3eb022-b980-437c-aef2-7da03b6e647b; session_id_videolibrary=127.0.0.1-66697a12-1bb0-4698-990f-7dc69f05b041; session_id_tinywebsite=&quot;2:b76915a7-d6db-4735-94e3-9ac83db2cead&quot;; session_id_appliances=127.0.0.1-6c1ed79f-b641-4245-87f5-946e18681934; session_id_examples=True; session_data_examples=&quot;hmac256:55d6ab81b49a2bc05158984cc77db078b7048b684b47c1f91f3cdbd5739d946a:W_NWZjFz5Y9or1oss7mNnJUlkqmES-rL1eNHrjjoU-xK8J3d5xCwhWERBUbVC-qAcupLXp9XRB5Si9KmyXDPHw==&quot;; session_id_geolocatebyip=127.0.0.1-bb1893cc-7ace-44d5-924a-c07f3e9ff781; session_id_imagegallery=127.0.0.1-c90ce7cf-bba6-4d3d-9930-00790bda270d; session_id_chats=127.0.0.1-4679b997-e595-4ac5-8916-93afe3c846fa; session_id_admin=127.0.0.1-9d988f07-a0cc-4d6f-950b-782595e38a60; session_id_uploadandsharefiles=127.0.0.1-1d054272-c601-4242-8095-8f79d3cf4898; session_id_message_system=127.0.0.1-241749a6-3b01-4986-9c92-7034286cbe17; session_id_helpmehelpyou=127.0.0.1-de445e7b-b739-42ed-95b0-33a4dfd722e2; session_id_kpax2=127.0.0.1-db0ed2bd-bf57-4260-b942-b6c741a680aa; session_id_facebookclone=127.0.0.1-a75c74e3-ee73-442e-982e-7eae71c72d91; session_id_welcome=127.0.0.1-2df12add-acb6-4d8f-b5c1-af005b591d8b</div></td></tr><tr><td style="font-weight:bold;vertical-align:top;">http_host</td><td style="vertical-align:top;">:</td><td><div>127.0.0.1:8000</div></td></tr><tr><td style="font-weight:bold;vertical-align:top;">http_referer</td><td style="vertical-align:top;">:</td><td><div>http://127.0.0.1:8000/KPax2/chats/create_chat</div></td></tr><tr><td style="font-weight:bold;vertical-align:top;">http_upgrade_insecure_requests</td><td style="vertical-align:top;">:</td><td><div>1</div></td></tr><tr><td style="font-weight:bold;vertical-align:top;">http_user_agent</td><td style="vertical-align:top;">:</td><td><div>Mozilla/5.0 (Macintosh; Intel Mac OS X 10_12_6) AppleWebKit/537.36 (KHTML, like Gecko) Chrome/70.0.3538.102 Safari/537.36</div></td></tr><tr><td style="font-weight:bold;vertical-align:top;">is_jython</td><td style="vertical-align:top;">:</td><td><div>False</div></td></tr><tr><td style="font-weight:bold;vertical-align:top;">is_py2</td><td style="vertical-align:top;">:</td><td><div>True</div></td></tr><tr><td style="font-weight:bold;vertical-align:top;">is_pypy</td><td style="vertical-align:top;">:</td><td><div>False</div></td></tr><tr><td style="font-weight:bold;vertical-align:top;">is_source</td><td style="vertical-align:top;">:</td><td><div>True</div></td></tr><tr><td style="font-weight:bold;vertical-align:top;">local_hosts</td><td style="vertical-align:top;">:</td><td><div><table><tr><td><div>::ffff:127.0.0.1</div></td></tr><tr><td><div>::1</div></td></tr><tr><td><div>192.168.0.105</div></td></tr><tr><td><div>fe80::822:d796:9107:4523%en0</div></td></tr><tr><td><div>jadetop.local</div></td></tr><tr><td><div>2601:647:cc00:d9e1:4ea:bee:eb8c:a9a</div></td></tr><tr><td><div>127.0.0.1</div></td></tr></table></div></td></tr><tr><td style="font-weight:bold;vertical-align:top;">path_info</td><td style="vertical-align:top;">:</td><td><div>/KPax2/chats</div></td></tr><tr><td style="font-weight:bold;vertical-align:top;">query_string</td><td style="vertical-align:top;">:</td><td><div></div></td></tr><tr><td style="font-weight:bold;vertical-align:top;">remote_addr</td><td style="vertical-align:top;">:</td><td><div>127.0.0.1</div></td></tr><tr><td style="font-weight:bold;vertical-align:top;">remote_port</td><td style="vertical-align:top;">:</td><td><div>50931</div></td></tr><tr><td style="font-weight:bold;vertical-align:top;">request_method</td><td style="vertical-align:top;">:</td><td><div>GET</div></td></tr><tr><td style="font-weight:bold;vertical-align:top;">request_uri</td><td style="vertical-align:top;">:</td><td><div>/KPax2/chats/index</div></td></tr><tr><td style="font-weight:bold;vertical-align:top;">script_name</td><td style="vertical-align:top;">:</td><td><div></div></td></tr><tr><td style="font-weight:bold;vertical-align:top;">server_name</td><td style="vertical-align:top;">:</td><td><div>jadetop.local</div></td></tr><tr><td style="font-weight:bold;vertical-align:top;">server_port</td><td style="vertical-align:top;">:</td><td><div>8000</div></td></tr><tr><td style="font-weight:bold;vertical-align:top;">server_protocol</td><td style="vertical-align:top;">:</td><td><div>HTTP/1.1</div></td></tr><tr><td style="font-weight:bold;vertical-align:top;">server_software</td><td style="vertical-align:top;">:</td><td><div>Rocket 1.2.6</div></td></tr><tr><td style="font-weight:bold;vertical-align:top;">web2py_original_uri</td><td style="vertical-align:top;">:</td><td><div>/KPax2/chats</div></td></tr><tr><td style="font-weight:bold;vertical-align:top;">web2py_path</td><td style="vertical-align:top;">:</td><td><div>/Users/jade/Downloads/web2py</div></td></tr><tr><td style="font-weight:bold;vertical-align:top;">web2py_version</td><td style="vertical-align:top;">:</td><td><div>2.17.2-stable+timestamp.2018.10.06.18.54.02</div></td></tr><tr><td style="font-weight:bold;vertical-align:top;">wsgi.errors</td><td style="vertical-align:top;">:</td><td><div>&lt;open file &#x27;&lt;stderr&gt;&#x27;, mode &#x27;w&#x27; at 0x102c981e0&gt;</div></td></tr><tr><td style="font-weight:bold;vertical-align:top;">wsgi.file_wrapper</td><td style="vertical-align:top;">:</td><td><div>&lt;class wsgiref.util.FileWrapper at 0x1040c7120&gt;</div></td></tr><tr><td style="font-weight:bold;vertical-align:top;">wsgi.input</td><td style="vertical-align:top;">:</td><td><div>&lt;socket._fileobject object at 0x10b8a59d0&gt;</div></td></tr><tr><td style="font-weight:bold;vertical-align:top;">wsgi.multiprocess</td><td style="vertical-align:top;">:</td><td><div>False</div></td></tr><tr><td style="font-weight:bold;vertical-align:top;">wsgi.multithread</td><td style="vertical-align:top;">:</td><td><div>True</div></td></tr><tr><td style="font-weight:bold;vertical-align:top;">wsgi.run_once</td><td style="vertical-align:top;">:</td><td><div>False</div></td></tr><tr><td style="font-weight:bold;vertical-align:top;">wsgi.url_scheme</td><td style="vertical-align:top;">:</td><td><div>http</div></td></tr><tr><td style="font-weight:bold;vertical-align:top;">wsgi.version</td><td style="vertical-align:top;">:</td><td><div><table><tr><td><div>1</div></td></tr><tr><td><div>0</div></td></tr></table></div></td></tr><tr><td style="font-weight:bold;vertical-align:top;">wsgi_errors</td><td style="vertical-align:top;">:</td><td><div>&lt;open file &#x27;&lt;stderr&gt;&#x27;, mode &#x27;w&#x27; at 0x102c981e0&gt;</div></td></tr><tr><td style="font-weight:bold;vertical-align:top;">wsgi_file_wrapper</td><td style="vertical-align:top;">:</td><td><div>&lt;class wsgiref.util.FileWrapper at 0x1040c7120&gt;</div></td></tr><tr><td style="font-weight:bold;vertical-align:top;">wsgi_input</td><td style="vertical-align:top;">:</td><td><div>&lt;socket._fileobject object at 0x10b8a59d0&gt;</div></td></tr><tr><td style="font-weight:bold;vertical-align:top;">wsgi_multiprocess</td><td style="vertical-align:top;">:</td><td><div>False</div></td></tr><tr><td style="font-weight:bold;vertical-align:top;">wsgi_multithread</td><td style="vertical-align:top;">:</td><td><div>True</div></td></tr><tr><td style="font-weight:bold;vertical-align:top;">wsgi_run_once</td><td style="vertical-align:top;">:</td><td><div>False</div></td></tr><tr><td style="font-weight:bold;vertical-align:top;">wsgi_url_scheme</td><td style="vertical-align:top;">:</td><td><div>http</div></td></tr><tr><td style="font-weight:bold;vertical-align:top;">wsgi_version</td><td style="vertical-align:top;">:</td><td><div><table><tr><td><div>1</div></td></tr><tr><td><div>0</div></td></tr></table></div></td></tr></table></div></td></tr><tr><td style="font-weight:bold;vertical-align:top;">extension</td><td style="vertical-align:top;">:</td><td><div>html</div></td></tr><tr><td style="font-weight:bold;vertical-align:top;">folder</td><td style="vertical-align:top;">:</td><td><div>/Users/jade/Downloads/web2py/applications/KPax2/</div></td></tr><tr><td style="font-weight:bold;vertical-align:top;">function</td><td style="vertical-align:top;">:</td><td><div>index</div></td></tr><tr><td style="font-weight:bold;vertical-align:top;">global_settings</td><td style="vertical-align:top;">:</td><td><div><table><tr><td style="font-weight:bold;vertical-align:top;">app_folders</td><td style="vertical-align:top;">:</td><td><div>set([&#x27;/Users/jade/Downloads/web2py/applications/welcome/&#x27;, &#x27;/Users/jade/Downloads/web2py/applications/KPax2/&#x27;, &#x27;/Users/jade/Downloads/web2py/applications/admin/&#x27;])</div></td></tr><tr><td style="font-weight:bold;vertical-align:top;">applications_parent</td><td style="vertical-align:top;">:</td><td><div>/Users/jade/Downloads/web2py</div></td></tr><tr><td style="font-weight:bold;vertical-align:top;">cmd_args</td><td style="vertical-align:top;">:</td><td><div><table></table></div></td></tr><tr><td style="font-weight:bold;vertical-align:top;">cmd_options</td><td style="vertical-align:top;">:</td><td><div>&lt;Values at 0x104122440: {&#x27;verbose&#x27;: False, &#x27;ip&#x27;: &#x27;127.0.0.1&#x27;, &#x27;debuglevel&#x27;: 30, &#x27;with_scheduler&#x27;: False, &#x27;shutdown_timeout&#x27;: 5, &#x27;taskbar&#x27;: False, &#x27;with_coverage&#x27;: False, &#x27;pid_filename&#x27;: &#x27;httpserver.pid&#x27;, &#x27;maxthreads&#x27;: None, &#x27;softcron&#x27;: False, &#x27;server_name&#x27;: &#x27;jadetop.local&#x27;, &#x27;bpython&#x27;: False, &#x27;nogui&#x27;: False, &#x27;port&#x27;: 8000, &#x27;print_errors&#x27;: False, &#x27;extcron&#x27;: False, &#x27;runcron&#x27;: False, &#x27;run_system_tests&#x27;: False, &#x27;test&#x27;: None, &#x27;folder&#x27;: &#x27;/Users/jade/Downloads/web2py&#x27;, &#x27;config&#x27;: &#x27;&#x27;, &#x27;minthreads&#x27;: None, &#x27;shell&#x27;: None, &#x27;run&#x27;: &#x27;&#x27;, &#x27;log_filename&#x27;: &#x27;httpserver.log&#x27;, &#x27;profiler_dir&#x27;: None, &#x27;args&#x27;: [&#x27;&#x27;], &#x27;socket_timeout&#x27;: 5, &#x27;ssl_ca_certificate&#x27;: None, &#x27;scheduler&#x27;: None, &#x27;interfaces&#x27;: None, &#x27;ssl_private_key&#x27;: &#x27;&#x27;, &#x27;gae&#x27;: None, &#x27;password&#x27;: &#x27;******&#x27;, &#x27;request_queue_size&#x27;: 5, &#x27;ssl_certificate&#x27;: &#x27;&#x27;, &#x27;cronjob&#x27;: False, &#x27;numthreads&#x27;: None, &#x27;quiet&#x27;: False, &#x27;import_models&#x27;: False, &#x27;timeout&#x27;: 10, &#x27;plain&#x27;: False, &#x27;nobanner&#x27;: False}&gt;</div></td></tr><tr><td style="font-weight:bold;vertical-align:top;">db_sessions</td><td style="vertical-align:top;">:</td><td><div>set([])</div></td></tr><tr><td style="font-weight:bold;vertical-align:top;">debugging</td><td style="vertical-align:top;">:</td><td><div>True</div></td></tr><tr><td style="font-weight:bold;vertical-align:top;">gluon_parent</td><td style="vertical-align:top;">:</td><td><div>/Users/jade/Downloads/web2py</div></td></tr><tr><td style="font-weight:bold;vertical-align:top;">is_jython</td><td style="vertical-align:top;">:</td><td><div>False</div></td></tr><tr><td style="font-weight:bold;vertical-align:top;">is_py2</td><td style="vertical-align:top;">:</td><td><div>True</div></td></tr><tr><td style="font-weight:bold;vertical-align:top;">is_pypy</td><td style="vertical-align:top;">:</td><td><div>False</div></td></tr><tr><td style="font-weight:bold;vertical-align:top;">is_source</td><td style="vertical-align:top;">:</td><td><div>True</div></td></tr><tr><td style="font-weight:bold;vertical-align:top;">local_hosts</td><td style="vertical-align:top;">:</td><td><div><table><tr><td><div>::ffff:127.0.0.1</div></td></tr><tr><td><div>::1</div></td></tr><tr><td><div>192.168.0.105</div></td></tr><tr><td><div>fe80::822:d796:9107:4523%en0</div></td></tr><tr><td><div>jadetop.local</div></td></tr><tr><td><div>2601:647:cc00:d9e1:4ea:bee:eb8c:a9a</div></td></tr><tr><td><div>127.0.0.1</div></td></tr></table></div></td></tr><tr><td style="font-weight:bold;vertical-align:top;">web2py_version</td><td style="vertical-align:top;">:</td><td><div>2.17.2-stable+timestamp.2018.10.06.18.54.02</div></td></tr></table></div></td></tr><tr><td style="font-weight:bold;vertical-align:top;">is_https</td><td style="vertical-align:top;">:</td><td><div>False</div></td></tr><tr><td style="font-weight:bold;vertical-align:top;">is_local</td><td style="vertical-align:top;">:</td><td><div>True</div></td></tr><tr><td style="font-weight:bold;vertical-align:top;">is_restful</td><td style="vertical-align:top;">:</td><td><div>False</div></td></tr><tr><td style="font-weight:bold;vertical-align:top;">is_scheduler</td><td style="vertical-align:top;">:</td><td><div>False</div></td></tr><tr><td style="font-weight:bold;vertical-align:top;">is_shell</td><td style="vertical-align:top;">:</td><td><div>False</div></td></tr><tr><td style="font-weight:bold;vertical-align:top;">method</td><td style="vertical-align:top;">:</td><td><div>GET</div></td></tr><tr><td style="font-weight:bold;vertical-align:top;">now</td><td style="vertical-align:top;">:</td><td><div>datetime.datetime(2018, 11, 16, 18, 32, 28, 447106)</div></td></tr><tr><td style="font-weight:bold;vertical-align:top;">url</td><td style="vertical-align:top;">:</td><td><div>/KPax2/chats</div></td></tr><tr><td style="font-weight:bold;vertical-align:top;">utcnow</td><td style="vertical-align:top;">:</td><td><div>datetime.datetime(2018, 11, 17, 2, 32, 28, 447129)</div></td></tr><tr><td style="font-weight:bold;vertical-align:top;">wsgi</td><td style="vertical-align:top;">:</td><td><div>&lt;gluon.main.LazyWSGI object at 0x10c73bcd0&gt;</div></td></tr></table></div>'
tRp59
sS'frames'
p60
(lp61
(dp62
S'file'
p63
S'/Users/jade/Downloads/web2py/gluon/restricted.py'
p64
sS'dump'
p65
(dp66
S'environment'
p67
S"{'A': <class 'gluon.html.A'>, 'ANY_OF': <class 'gluon.validators.ANY_OF'>, 'ASSIGNJS': <function ASSIGNJS>, 'Auth': <class 'gluon.tools.Auth'>, 'B': <class 'gluon.html.B'>, 'BEAUTIFY': <class 'gluon.html.BEAUTIFY'>, 'BODY': <class 'gluon.html.BODY'>, 'BR': <class 'gluon.html.BR'>, 'BUTTON': <class 'gluon.html.BUTTON'>, 'CAT': <class 'gluon.html.CAT'>, ...}"
p68
sS'ccode'
p69
S'<code object <module> at 0x10b8a55b0, file "/Use...plications/KPax2/views/chats/index.html", line 1>'
p70
ssS'lnum'
p71
I219
sS'lines'
p72
(dp73
I214
S'    if environment is None:'
p74
sI215
S'        environment = {}'
p75
sI216
S"    environment['__file__'] = layer"
p76
sI217
S"    environment['__name__'] = '__restricted__'"
p77
sI218
S'    try:'
p78
sI219
S'        exec(ccode, environment)'
p79
sI220
S'    except HTTP:'
p80
sI221
S'        raise'
p81
sI222
S'    except RestrictedError:'
p82
sI223
S'        # do not encapsulate (obfuscate) the original RestrictedError'
p83
ssS'call'
p84
S'(ccode=<code object <module> at 0x10b8a55b0, file "/Use...plications/KPax2/views/chats/index.html", line 1>, environment={\'A\': <class \'gluon.html.A\'>, \'ANY_OF\': <class \'gluon.validators.ANY_OF\'>, \'ASSIGNJS\': <function ASSIGNJS>, \'Auth\': <class \'gluon.tools.Auth\'>, \'B\': <class \'gluon.html.B\'>, \'BEAUTIFY\': <class \'gluon.html.BEAUTIFY\'>, \'BODY\': <class \'gluon.html.BODY\'>, \'BR\': <class \'gluon.html.BR\'>, \'BUTTON\': <class \'gluon.html.BUTTON\'>, \'CAT\': <class \'gluon.html.CAT\'>, ...}, layer=\'/Users/jade/Downloads/web2py/applications/KPax2/views/chats/index.html\', scode=\'response.write(\\\'<!DOCTYPE html PUBLIC "-//W3C//D...esponse.write(\\\'\\\\n</body>\\\\n</html>\\\', escape=False)\')'
p85
sS'func'
p86
S'restricted'
p87
sa(dp88
g63
S'/Users/jade/Downloads/web2py/applications/KPax2/views/chats/index.html'
p89
sg65
(dp90
sg71
I106
sg72
(dp91
I97
S'        response.write(\'</a>\\n<div id="box\', escape=False)'
p92
sI98
S'        response.write(a.chat_line.id)'
p93
sI99
S'        response.write(\'" class="box">\\n<span style="visibility:hidden">\', escape=False)'
p94
sI100
S"        response.write(''.join(['[G%s]'%i for i in a.accessible_to]))"
p95
sI101
S"        response.write('</span>\\n', escape=False)"
p96
sI102
S'        response.write(XML(a.chat_line.description))'
p97
sI103
S'        response.write(\'\\n<br/>\\n[<a href="\', escape=False)'
p98
sI104
S"        response.write(URL('open_chat',args=str(a.chat_line.id)))"
p99
sI105
S'        response.write(\'">go chat</a>]\\n\', escape=False)'
p100
sI106
S'        if a.chat_line.owner==auth.user_id:'
p101
sI107
S'            response.write(\'\\n[<a href="\', escape=False)'
p102
sI108
S"            response.write(URL(r=request,c='access',f='change',args=['chat_line',a.chat_line.id],vars=dict(forward=URL(r=request))))"
p103
sI109
S'            response.write(\'">change permissions</a>]\\n[<a href="\', escape=False)'
p104
sI110
S"            response.write(URL('edit_chat',args=[a.chat_line.id]))"
p105
sI111
S'            response.write(\'">edit info</a>]\\n[<a href="\', escape=False)'
p106
sI112
S"            response.write(URL('clear',args=[a.chat_line.id]))"
p107
sI113
S'            response.write(\'">reset</a>]\\n\', escape=False)'
p108
sI114
S'            pass'
p109
sI115
S"        response.write('\\n</div>\\n', escape=False)"
p110
sI116
S'        if k>0:'
p111
ssg84
S'()'
p112
sg86
S'<module>'
p113
sa(dp114
g63
S'/Users/jade/Downloads/web2py/gluon/packages/dal/pydal/objects.py'
p115
sg65
(dp116
S'builtinAttributeError'
p117
S"<type 'exceptions.AttributeError'>"
p118
ssg71
I109
sg72
(dp119
I104
S''
sI105
S'    def __getattr__(self, k):'
p120
sI106
S'        try:'
p121
sI107
S'            return self.__getitem__(k)'
p122
sI108
S'        except KeyError:'
p123
sI109
S'            raise AttributeError'
p124
sI110
S''
sI111
S'    def __copy__(self):'
p125
sI112
S'        return Row(self)'
p126
sI113
S''
ssg84
S'(self=<Row {\'own\': 1L, \'description\': \'another chat\', ...."chat_line" = 6)>, \'id\': 6L, \'name\': \'cmps115\'}>, k=\'owner\')'
p127
sg86
S'__getattr__'
p128
sasS'pyver'
p129
S'Python 2.7.14: /usr/local/opt/python@2/bin/python2.7 (prefix: /usr/local/Cellar/python@2/2.7.14_3/Frameworks/Python.framework/Versions/2.7)'
p130
sS'session'
p131
g58
(S's\x16\x0c\x00\x00<div><table><tr><td style="font-weight:bold;vertical-align:top;">auth</td><td style="vertical-align:top;">:</td><td><div><table><tr><td style="font-weight:bold;vertical-align:top;">expiration</td><td style="vertical-align:top;">:</td><td><div>2592000</div></td></tr><tr><td style="font-weight:bold;vertical-align:top;">hmac_key</td><td style="vertical-align:top;">:</td><td><div>b5fa4664-23c1-4458-a64e-ccb019bd4d59</div></td></tr><tr><td style="font-weight:bold;vertical-align:top;">last_visit</td><td style="vertical-align:top;">:</td><td><div>datetime.datetime(2018, 11, 16, 16, 53, 27, 841627)</div></td></tr><tr><td style="font-weight:bold;vertical-align:top;">remember_me</td><td style="vertical-align:top;">:</td><td><div>True</div></td></tr><tr><td style="font-weight:bold;vertical-align:top;">user</td><td style="vertical-align:top;">:</td><td><div><table><tr><td style="font-weight:bold;vertical-align:top;">email</td><td style="vertical-align:top;">:</td><td><div>veggiekeller@gmail.com</div></td></tr><tr><td style="font-weight:bold;vertical-align:top;">first_name</td><td style="vertical-align:top;">:</td><td><div>jade</div></td></tr><tr><td style="font-weight:bold;vertical-align:top;">id</td><td style="vertical-align:top;">:</td><td><div>1L</div></td></tr><tr><td style="font-weight:bold;vertical-align:top;">last_name</td><td style="vertical-align:top;">:</td><td><div>keller</div></td></tr><tr><td style="font-weight:bold;vertical-align:top;">name</td><td style="vertical-align:top;">:</td><td><div>jade keller</div></td></tr><tr><td style="font-weight:bold;vertical-align:top;">registration_id</td><td style="vertical-align:top;">:</td><td><div></div></td></tr><tr><td style="font-weight:bold;vertical-align:top;">registration_key</td><td style="vertical-align:top;">:</td><td><div></div></td></tr><tr><td style="font-weight:bold;vertical-align:top;">reset_password_key</td><td style="vertical-align:top;">:</td><td><div></div></td></tr></table></div></td></tr><tr><td style="font-weight:bold;vertical-align:top;">user_groups</td><td style="vertical-align:top;">:</td><td><div><table><tr><td style="font-weight:bold;vertical-align:top;">1</td><td style="vertical-align:top;">:</td><td><div>user_1</div></td></tr></table></div></td></tr></table></div></td></tr><tr><td style="font-weight:bold;vertical-align:top;">flash</td><td style="vertical-align:top;">:</td><td><div>None</div></td></tr><tr><td style="font-weight:bold;vertical-align:top;">g_tuple</td><td style="vertical-align:top;">:</td><td><div>None</div></td></tr><tr><td style="font-weight:bold;vertical-align:top;">groups</td><td style="vertical-align:top;">:</td><td><div>None</div></td></tr><tr><td style="font-weight:bold;vertical-align:top;">person_email</td><td style="vertical-align:top;">:</td><td><div>None</div></td></tr><tr><td style="font-weight:bold;vertical-align:top;">person_id</td><td style="vertical-align:top;">:</td><td><div>None</div></td></tr><tr><td style="font-weight:bold;vertical-align:top;">person_name</td><td style="vertical-align:top;">:</td><td><div>None</div></td></tr></table></div>'
tRp132
sS'etype'
p133
S"<type 'exceptions.AttributeError'>"
p134
sS'date'
p135
S'Fri Nov 16 18:32:28 2018'
p136
sS'response'
p137
g58
(S's\xdd\x17\x00\x00<div><table><tr><td style="font-weight:bold;vertical-align:top;">body</td><td style="vertical-align:top;">:</td><td><div>&lt;cStringIO.StringO object at 0x10c603ea0&gt;</div></td></tr><tr><td style="font-weight:bold;vertical-align:top;">cookies</td><td style="vertical-align:top;">:</td><td><div><table><tr><td style="font-weight:bold;vertical-align:top;">session_id_kpax2</td><td style="vertical-align:top;">:</td><td><div>127.0.0.1-db0ed2bd-bf57-4260-b942-b6c741a680aa<table><tr><td style="font-weight:bold;vertical-align:top;">comment</td><td style="vertical-align:top;">:</td><td><div></div></td></tr><tr><td style="font-weight:bold;vertical-align:top;">domain</td><td style="vertical-align:top;">:</td><td><div></div></td></tr><tr><td style="font-weight:bold;vertical-align:top;">expires</td><td style="vertical-align:top;">:</td><td><div></div></td></tr><tr><td style="font-weight:bold;vertical-align:top;">httponly</td><td style="vertical-align:top;">:</td><td><div></div></td></tr><tr><td style="font-weight:bold;vertical-align:top;">max-age</td><td style="vertical-align:top;">:</td><td><div></div></td></tr><tr><td style="font-weight:bold;vertical-align:top;">path</td><td style="vertical-align:top;">:</td><td><div>/</div></td></tr><tr><td style="font-weight:bold;vertical-align:top;">samesite</td><td style="vertical-align:top;">:</td><td><div></div></td></tr><tr><td style="font-weight:bold;vertical-align:top;">secure</td><td style="vertical-align:top;">:</td><td><div></div></td></tr><tr><td style="font-weight:bold;vertical-align:top;">version</td><td style="vertical-align:top;">:</td><td><div></div></td></tr></table></div></td></tr></table></div></td></tr><tr><td style="font-weight:bold;vertical-align:top;">delimiters</td><td style="vertical-align:top;">:</td><td><div><table><tr><td><div>{{</div></td></tr><tr><td><div>}}</div></td></tr></table></div></td></tr><tr><td style="font-weight:bold;vertical-align:top;">files</td><td style="vertical-align:top;">:</td><td><div><table></table></div></td></tr><tr><td style="font-weight:bold;vertical-align:top;">flash</td><td style="vertical-align:top;">:</td><td><div></div></td></tr><tr><td style="font-weight:bold;vertical-align:top;">form_label_separator</td><td style="vertical-align:top;">:</td><td><div>: </div></td></tr><tr><td style="font-weight:bold;vertical-align:top;">formstyle</td><td style="vertical-align:top;">:</td><td><div>table3cols</div></td></tr><tr><td style="font-weight:bold;vertical-align:top;">generic_patterns</td><td style="vertical-align:top;">:</td><td><div><table><tr><td><div>*</div></td></tr></table></div></td></tr><tr><td style="font-weight:bold;vertical-align:top;">headers</td><td style="vertical-align:top;">:</td><td><div><table><tr><td style="font-weight:bold;vertical-align:top;">X-Powered-By</td><td style="vertical-align:top;">:</td><td><div>web2py</div></td></tr></table></div></td></tr><tr><td style="font-weight:bold;vertical-align:top;">menu</td><td style="vertical-align:top;">:</td><td><div><table></table></div></td></tr><tr><td style="font-weight:bold;vertical-align:top;">meta</td><td style="vertical-align:top;">:</td><td><div><table></table></div></td></tr><tr><td style="font-weight:bold;vertical-align:top;">models_to_run</td><td style="vertical-align:top;">:</td><td><div><table><tr><td><div>^\\w+\\.py$</div></td></tr><tr><td><div>^chats/\\w+\\.py$</div></td></tr><tr><td><div>^chats/index/\\w+\\.py$</div></td></tr></table></div></td></tr><tr><td style="font-weight:bold;vertical-align:top;">postprocessing</td><td style="vertical-align:top;">:</td><td><div><table></table></div></td></tr><tr><td style="font-weight:bold;vertical-align:top;">session_client</td><td style="vertical-align:top;">:</td><td><div>127.0.0.1</div></td></tr><tr><td style="font-weight:bold;vertical-align:top;">session_cookie_compression_level</td><td style="vertical-align:top;">:</td><td><div>None</div></td></tr><tr><td style="font-weight:bold;vertical-align:top;">session_cookie_expires</td><td style="vertical-align:top;">:</td><td><div>2592000</div></td></tr><tr><td style="font-weight:bold;vertical-align:top;">session_data_name</td><td style="vertical-align:top;">:</td><td><div>session_data_kpax2</div></td></tr><tr><td style="font-weight:bold;vertical-align:top;">session_file</td><td style="vertical-align:top;">:</td><td><div>&lt;open file &#x27;/Users/jade/Downloads/web2py/applications/KPax2/sessions/18e/142/127.0.0.1-db0ed2bd-bf57-4260-b942-b6c741a680aa&#x27;, mode &#x27;rb+&#x27; at 0x10bdaa780&gt;</div></td></tr><tr><td style="font-weight:bold;vertical-align:top;">session_filename</td><td style="vertical-align:top;">:</td><td><div>/Users/jade/Downloads/web2py/applications/KPax2/sessions/127.0.0.1-db0ed2bd-bf57-4260-b942-b6c741a680aa</div></td></tr><tr><td style="font-weight:bold;vertical-align:top;">session_hash</td><td style="vertical-align:top;">:</td><td><div>7cb670adb13a84d4e6600da8f8991c2e</div></td></tr><tr><td style="font-weight:bold;vertical-align:top;">session_id</td><td style="vertical-align:top;">:</td><td><div>127.0.0.1-db0ed2bd-bf57-4260-b942-b6c741a680aa</div></td></tr><tr><td style="font-weight:bold;vertical-align:top;">session_id_name</td><td style="vertical-align:top;">:</td><td><div>session_id_kpax2</div></td></tr><tr><td style="font-weight:bold;vertical-align:top;">session_locked</td><td style="vertical-align:top;">:</td><td><div>True</div></td></tr><tr><td style="font-weight:bold;vertical-align:top;">session_masterapp</td><td style="vertical-align:top;">:</td><td><div>KPax2</div></td></tr><tr><td style="font-weight:bold;vertical-align:top;">session_new</td><td style="vertical-align:top;">:</td><td><div>False</div></td></tr><tr><td style="font-weight:bold;vertical-align:top;">session_storage_type</td><td style="vertical-align:top;">:</td><td><div>file</div></td></tr><tr><td style="font-weight:bold;vertical-align:top;">status</td><td style="vertical-align:top;">:</td><td><div>200</div></td></tr><tr><td style="font-weight:bold;vertical-align:top;">view</td><td style="vertical-align:top;">:</td><td><div>chats/index.html</div></td></tr></table></div>'
tRp138
sS'locals'
p139
(dp140
S'k'
S"'owner'"
p141
sS'self'
p142
S'<Row {\'own\': 1L, \'description\': \'another chat\', ...."chat_line" = 6)>, \'id\': 6L, \'name\': \'cmps115\'}>'
p143
sssS'traceback'
p144
S'Traceback (most recent call last):\n  File "/Users/jade/Downloads/web2py/gluon/restricted.py", line 219, in restricted\n    exec(ccode, environment)\n  File "/Users/jade/Downloads/web2py/applications/KPax2/views/chats/index.html", line 106, in <module>\n  File "/Users/jade/Downloads/web2py/gluon/packages/dal/pydal/objects.py", line 109, in __getattr__\n    raise AttributeError\nAttributeError\n'
p145
s.